target datalayout = "e-m:e-p270:32:32-p271:32:32-p272:64:64-i64:64-i128:128-f80:128-n8:16:32:64-S128"
target triple = "x86_64-pc-linux-gnu"

%struct._zend_mm_heap = type { i32, ptr, i64, i64, [30 x ptr], i64, i64, i64, i32, ptr, ptr, ptr, i32, i32, i32, double, i32, i32, %struct.anon, ptr }
%struct.anon = type { ptr, ptr, ptr }
%struct._zend_mm_chunk = type { ptr, ptr, ptr, i32, i32, i32, [28 x i8], %struct._zend_mm_heap, [8 x i64], [512 x i32] }

@.str = private unnamed_addr constant [23 x i8] c"zend_mm_heap corrupted\00", align 1

; Function Attrs: nounwind uwtable
define void @_zend_mm_free(ptr noundef %0, ptr noundef %1) #0 {
  %3 = alloca ptr, align 8
  %4 = alloca ptr, align 8
  %5 = alloca i32, align 4
  %6 = alloca i32, align 4
  %7 = alloca ptr, align 8
  %8 = alloca ptr, align 8
  %9 = alloca i32, align 4
  %10 = alloca ptr, align 8
  %11 = alloca ptr, align 8
  %12 = alloca ptr, align 8
  %13 = alloca i64, align 8
  %14 = alloca ptr, align 8
  %15 = alloca i32, align 4
  %16 = alloca i32, align 4
  %17 = alloca i32, align 4
  %18 = alloca ptr, align 8
  %19 = alloca ptr, align 8
  store ptr %0, ptr %18, align 8
  store ptr %1, ptr %19, align 8
  %20 = load ptr, ptr %18, align 8
  %21 = load ptr, ptr %19, align 8
  store ptr %20, ptr %11, align 8
  store ptr %21, ptr %12, align 8
  %22 = load ptr, ptr %12, align 8
  %23 = ptrtoint ptr %22 to i64
  %24 = and i64 %23, 2097151
  store i64 %24, ptr %13, align 8
  %25 = load i64, ptr %13, align 8
  %26 = icmp eq i64 %25, 0
  br i1 %26, label %27, label %34

27:                                               ; preds = %2
  %28 = load ptr, ptr %12, align 8
  %29 = icmp ne ptr %28, null
  br i1 %29, label %30, label %33

30:                                               ; preds = %27
  %31 = load ptr, ptr %11, align 8
  %32 = load ptr, ptr %12, align 8
  call void @zend_mm_free_huge(ptr noundef %31, ptr noundef %32)
  br label %33

33:                                               ; preds = %30, %27
  br label %111

34:                                               ; preds = %2
  %35 = load ptr, ptr %12, align 8
  %36 = ptrtoint ptr %35 to i64
  %37 = and i64 %36, -2097152
  %38 = inttoptr i64 %37 to ptr
  store ptr %38, ptr %14, align 8
  %39 = load i64, ptr %13, align 8
  %40 = udiv i64 %39, 4096
  %41 = trunc i64 %40 to i32
  store i32 %41, ptr %15, align 4
  %42 = load ptr, ptr %14, align 8
  %43 = getelementptr inbounds %struct._zend_mm_chunk, ptr %42, i32 0, i32 9
  %44 = load i32, ptr %15, align 4
  %45 = sext i32 %44 to i64
  %46 = getelementptr inbounds [512 x i32], ptr %43, i64 0, i64 %45
  %47 = load i32, ptr %46, align 4
  store i32 %47, ptr %16, align 4
  %48 = load ptr, ptr %14, align 8
  %49 = load ptr, ptr %48, align 8
  %50 = load ptr, ptr %11, align 8
  %51 = icmp eq ptr %49, %50
  %52 = xor i1 %51, true
  br i1 %52, label %53, label %54

53:                                               ; preds = %34
  call void @zend_mm_panic(ptr noundef @.str) #19
  unreachable

54:                                               ; preds = %34
  %55 = load i32, ptr %16, align 4
  %56 = and i32 %55, -2147483648
  %57 = icmp ne i32 %56, 0
  br i1 %57, label %58, label %86

58:                                               ; preds = %54
  %59 = load ptr, ptr %11, align 8
  %60 = load ptr, ptr %12, align 8
  %61 = load i32, ptr %16, align 4
  %62 = and i32 %61, 31
  store ptr %59, ptr %7, align 8
  store ptr %60, ptr %8, align 8
  store i32 %62, ptr %9, align 4
  %63 = load i32, ptr %9, align 4
  %64 = sext i32 %63 to i64
  %65 = getelementptr inbounds [30 x i32], ptr @bin_data_size, i64 0, i64 %64
  %66 = load i32, ptr %65, align 4
  %67 = zext i32 %66 to i64
  %68 = load ptr, ptr %7, align 8
  %69 = getelementptr inbounds %struct._zend_mm_heap, ptr %68, i32 0, i32 2
  %70 = load i64, ptr %69, align 8
  %71 = sub i64 %70, %67
  store i64 %71, ptr %69, align 8
  %72 = load ptr, ptr %8, align 8
  store ptr %72, ptr %10, align 8
  %73 = load ptr, ptr %7, align 8
  %74 = getelementptr inbounds %struct._zend_mm_heap, ptr %73, i32 0, i32 4
  %75 = load i32, ptr %9, align 4
  %76 = sext i32 %75 to i64
  %77 = getelementptr inbounds [30 x ptr], ptr %74, i64 0, i64 %76
  %78 = load ptr, ptr %77, align 8
  %79 = load ptr, ptr %10, align 8
  store ptr %78, ptr %79, align 8
  %80 = load ptr, ptr %10, align 8
  %81 = load ptr, ptr %7, align 8
  %82 = getelementptr inbounds %struct._zend_mm_heap, ptr %81, i32 0, i32 4
  %83 = load i32, ptr %9, align 4
  %84 = sext i32 %83 to i64
  %85 = getelementptr inbounds [30 x ptr], ptr %82, i64 0, i64 %84
  store ptr %80, ptr %85, align 8
  br label %110

86:                                               ; preds = %54
  %87 = load i32, ptr %16, align 4
  %88 = and i32 %87, 1023
  store i32 %88, ptr %17, align 4
  %89 = load i64, ptr %13, align 8
  %90 = and i64 %89, 4095
  %91 = icmp eq i64 %90, 0
  %92 = xor i1 %91, true
  br i1 %92, label %93, label %94

93:                                               ; preds = %86
  call void @zend_mm_panic(ptr noundef @.str) #19
  unreachable

94:                                               ; preds = %86
  %95 = load ptr, ptr %11, align 8
  %96 = load ptr, ptr %14, align 8
  %97 = load i32, ptr %15, align 4
  %98 = load i32, ptr %17, align 4
  store ptr %95, ptr %3, align 8
  store ptr %96, ptr %4, align 8
  store i32 %97, ptr %5, align 4
  store i32 %98, ptr %6, align 4
  %99 = load i32, ptr %6, align 4
  %100 = mul nsw i32 %99, 4096
  %101 = sext i32 %100 to i64
  %102 = load ptr, ptr %3, align 8
  %103 = getelementptr inbounds %struct._zend_mm_heap, ptr %102, i32 0, i32 2
  %104 = load i64, ptr %103, align 8
  %105 = sub i64 %104, %101
  store i64 %105, ptr %103, align 8
  %106 = load ptr, ptr %3, align 8
  %107 = load ptr, ptr %4, align 8
  %108 = load i32, ptr %5, align 4
  %109 = load i32, ptr %6, align 4
  call void @zend_mm_free_pages(ptr noundef %106, ptr noundef %107, i32 noundef %108, i32 noundef %109)
  br label %110

110:                                              ; preds = %94, %58
  br label %111

111:                                              ; preds = %110, %33
  ret void
}