; Function Attrs: nounwind uwtable
define void @_zend_mm_free(ptr noundef %0, ptr noundef %1) local_unnamed_addr #0 {
  %3 = ptrtoint ptr %1 to i64
  %4 = and i64 %3, 2097151
  %5 = icmp eq i64 %4, 0
  br i1 %5, label %6, label %8

6:                                                ; preds = %2
  %.not40 = icmp eq ptr %1, null
  br i1 %.not40, label %41, label %7

7:                                                ; preds = %6
  tail call fastcc void @zend_mm_free_huge(ptr noundef %0, ptr noundef nonnull %1)
  br label %41

8:                                                ; preds = %2
  %9 = and i64 %3, -2097152
  %10 = inttoptr i64 %9 to ptr
  %11 = lshr i64 %4, 12
  %12 = trunc i64 %11 to i32
  %13 = getelementptr inbounds i8, ptr %10, i64 520
  %14 = getelementptr inbounds [512 x i32], ptr %13, i64 0, i64 %11
  %15 = load i32, ptr %14, align 4
  %16 = load ptr, ptr %10, align 2097152
  %.not = icmp eq ptr %16, %0
  br i1 %.not, label %18, label %17

17:                                               ; preds = %8
  tail call fastcc void @zend_mm_panic() #34
  unreachable

18:                                               ; preds = %8
  %.not38 = icmp sgt i32 %15, -1
  br i1 %.not38, label %31, label %19

19:                                               ; preds = %18
  %20 = and i32 %15, 31
  %21 = zext nneg i32 %20 to i64
  %22 = getelementptr inbounds [30 x i32], ptr @bin_data_size, i64 0, i64 %21
  %23 = load i32, ptr %22, align 4
  %24 = zext i32 %23 to i64
  %25 = getelementptr inbounds i8, ptr %0, i64 16
  %26 = load i64, ptr %25, align 8
  %27 = sub i64 %26, %24
  store i64 %27, ptr %25, align 8
  %28 = getelementptr inbounds i8, ptr %0, i64 32
  %29 = getelementptr inbounds [30 x ptr], ptr %28, i64 0, i64 %21
  %30 = load ptr, ptr %29, align 8
  store ptr %30, ptr %1, align 8
  store ptr %1, ptr %29, align 8
  br label %41

31:                                               ; preds = %18
  %32 = and i64 %3, 4095
  %.not39 = icmp eq i64 %32, 0
  br i1 %.not39, label %34, label %33

33:                                               ; preds = %31
  tail call fastcc void @zend_mm_panic() #34
  unreachable

34:                                               ; preds = %31
  %35 = and i32 %15, 1023
  %36 = shl nuw nsw i32 %35, 12
  %37 = zext nneg i32 %36 to i64
  %38 = getelementptr inbounds i8, ptr %0, i64 16
  %39 = load i64, ptr %38, align 8
  %40 = sub i64 %39, %37
  store i64 %40, ptr %38, align 8
  tail call fastcc void @zend_mm_free_pages(ptr noundef %0, ptr noundef nonnull %10, i32 noundef %12, i32 noundef %35)
  br label %41

41:                                               ; preds = %19, %34, %6, %7
  ret void
}